(dp0
S'INTERNET_TEST_STUDENT'
p1
S'v0818_I_T-RC2'
p2
sS'INTERNET_PRE_STUDENT'
p3
S'v0819_I_P-RC2'
p4
sS'INTERNET_TEST'
p5
S'v0928_INT_T'
p6
sS'taDEV'
p7
S'v0914_C_D-RC2'
p8
sS'INTERNET_PRO_STUDENT'
p9
S'1.1.2-S'
p10
sS'INTERNET_DEV'
p11
S'v0929_INT_D'
p12
sS'taPRE'
p13
S'v0212_C_P'
p14
sS'INTERNET_PRO'
p15
S'1.0.0'
p16
sS'taTEST'
p17
S'v0928_TA_T-RC2'
p18
sS'INTERNET_PRE'
p19
S'v0330_INT_PRE-RC3'
p20
sS'INTERNET_DEV_STUDENT'
p21
S'v0818_I_D-RC2'
p22
sS'taPRO'
p23
S'1.1.1-C'
p24
s.