(dp0
S'taDEV'
p1
S'v0914_C_D-RC12'
p2
sS'INTERNET_TEST'
p3
S'v0929_INT_T'
p4
sS'INTERNET_DEV'
p5
S'v0503_INT_D'
p6
sS'taPRE'
p7
S'v0914_C_P'
p8
sS'INTERNET_PRO'
p9
S'1.0.1'
p10
sS'taTEST'
p11
S'v0914_C_T-RC6'
p12
sS'INTERNET_PRE'
p13
S'v0928_INT_PRE'
p14
sS'taPRO'
p15
S'3.1.1-C'
p16
s.